; Function Attrs: null_pointer_is_valid sspstrong uwtable
define void @uat_swap(ptr noundef readonly captures(none) %0, i32 noundef %1, i32 noundef %2) local_unnamed_addr #0 {
  %4 = icmp eq i32 %1, %2
  br i1 %4, label %35, label %5

5:                                                ; preds = %3
  %6 = getelementptr inbounds nuw i8, ptr %0, i64 8
  %7 = load i64, ptr %6, align 8
  %8 = tail call noalias ptr @g_malloc(i64 noundef %7) #16
  %9 = getelementptr inbounds nuw i8, ptr %0, i64 136
  %10 = load ptr, ptr %9, align 8
  %11 = load ptr, ptr %10, align 8
  %12 = load i64, ptr %6, align 8
  %13 = zext i32 %1 to i64
  %14 = mul i64 %12, %13
  %15 = getelementptr i8, ptr %11, i64 %14
  %16 = icmp ne i64 %7, -1
  tail call void @llvm.assume(i1 %16)
  tail call void @llvm.memcpy.p0.p0.i64(ptr noundef align 1 %8, ptr noundef align 1 %15, i64 noundef %7, i1 noundef false) #17
  %17 = zext i32 %2 to i64
  %18 = mul i64 %12, %17
  %19 = getelementptr i8, ptr %11, i64 %18
  tail call void @llvm.memcpy.p0.p0.i64(ptr noundef align 1 %15, ptr noundef align 1 %19, i64 noundef %7, i1 noundef false) #17
  %20 = load ptr, ptr %9, align 8
  %21 = load ptr, ptr %20, align 8
  %22 = load i64, ptr %6, align 8
  %23 = mul i64 %22, %17
  %24 = getelementptr i8, ptr %21, i64 %23
  tail call void @llvm.memcpy.p0.p0.i64(ptr noundef align 1 %24, ptr noundef align 1 %8, i64 noundef %7, i1 noundef false) #17
  tail call void @g_free(ptr noundef %8)
  %25 = getelementptr inbounds nuw i8, ptr %0, i64 144
  %26 = load ptr, ptr %25, align 8
  %27 = load ptr, ptr %26, align 8
  %28 = getelementptr i8, ptr %27, i64 %13
  %29 = load i8, ptr %28, align 1, !range !9, !noundef !10
  %30 = getelementptr i8, ptr %27, i64 %17
  %31 = load i8, ptr %30, align 1, !range !9, !noundef !10
  store i8 %31, ptr %28, align 1
  %32 = load ptr, ptr %25, align 8
  %33 = load ptr, ptr %32, align 8
  %34 = getelementptr i8, ptr %33, i64 %17
  store i8 %29, ptr %34, align 1
  br label %35

35:                                               ; preds = %3, %5
  ret void
}